target datalayout = "e-m:e-p270:32:32-p271:32:32-p272:64:64-i64:64-i128:128-f80:128-n8:16:32:64-S128"
target triple = "x86_64-pc-linux-gnu"

%struct.ParsedText = type { ptr, i32, i32, i32 }
%struct.TSVectorBuildState = type { ptr, i32 }

; Function Attrs: nounwind uwtable
define internal void @add_to_tsvector(ptr noundef %0, ptr noundef %1, i32 noundef %2) #0 {
  %4 = alloca ptr, align 8
  %5 = alloca ptr, align 8
  %6 = alloca i32, align 4
  %7 = alloca ptr, align 8
  %8 = alloca ptr, align 8
  %9 = alloca i32, align 4
  store ptr %0, ptr %4, align 8
  store ptr %1, ptr %5, align 8
  store i32 %2, ptr %6, align 4
  call void @llvm.lifetime.start.p0(i64 8, ptr %7) #7
  %10 = load ptr, ptr %4, align 8
  store ptr %10, ptr %7, align 8
  call void @llvm.lifetime.start.p0(i64 8, ptr %8) #7
  %11 = load ptr, ptr %7, align 8
  %12 = getelementptr inbounds nuw %struct.TSVectorBuildState, ptr %11, i32 0, i32 0
  %13 = load ptr, ptr %12, align 8
  store ptr %13, ptr %8, align 8
  call void @llvm.lifetime.start.p0(i64 4, ptr %9) #7
  %14 = load ptr, ptr %8, align 8
  %15 = getelementptr inbounds nuw %struct.ParsedText, ptr %14, i32 0, i32 0
  %16 = load ptr, ptr %15, align 8
  %17 = icmp eq ptr %16, null
  br i1 %17, label %18, label %33

18:                                               ; preds = %3
  %19 = load ptr, ptr %8, align 8
  %20 = getelementptr inbounds nuw %struct.ParsedText, ptr %19, i32 0, i32 1
  store i32 16, ptr %20, align 8
  %21 = load ptr, ptr %8, align 8
  %22 = getelementptr inbounds nuw %struct.ParsedText, ptr %21, i32 0, i32 1
  %23 = load i32, ptr %22, align 8
  %24 = sext i32 %23 to i64
  %25 = mul i64 24, %24
  %26 = call ptr @palloc(i64 noundef %25)
  %27 = load ptr, ptr %8, align 8
  %28 = getelementptr inbounds nuw %struct.ParsedText, ptr %27, i32 0, i32 0
  store ptr %26, ptr %28, align 8
  %29 = load ptr, ptr %8, align 8
  %30 = getelementptr inbounds nuw %struct.ParsedText, ptr %29, i32 0, i32 2
  store i32 0, ptr %30, align 4
  %31 = load ptr, ptr %8, align 8
  %32 = getelementptr inbounds nuw %struct.ParsedText, ptr %31, i32 0, i32 3
  store i32 0, ptr %32, align 8
  br label %33

33:                                               ; preds = %18, %3
  %34 = load ptr, ptr %8, align 8
  %35 = getelementptr inbounds nuw %struct.ParsedText, ptr %34, i32 0, i32 2
  %36 = load i32, ptr %35, align 4
  store i32 %36, ptr %9, align 4
  %37 = load ptr, ptr %7, align 8
  %38 = getelementptr inbounds nuw %struct.TSVectorBuildState, ptr %37, i32 0, i32 1
  %39 = load i32, ptr %38, align 8
  %40 = load ptr, ptr %8, align 8
  %41 = load ptr, ptr %5, align 8
  %42 = load i32, ptr %6, align 4
  call void @parsetext(i32 noundef %39, ptr noundef %40, ptr noundef %41, i32 noundef %42)
  %43 = load ptr, ptr %8, align 8
  %44 = getelementptr inbounds nuw %struct.ParsedText, ptr %43, i32 0, i32 2
  %45 = load i32, ptr %44, align 4
  %46 = load i32, ptr %9, align 4
  %47 = icmp sgt i32 %45, %46
  br i1 %47, label %48, label %53

48:                                               ; preds = %33
  %49 = load ptr, ptr %8, align 8
  %50 = getelementptr inbounds nuw %struct.ParsedText, ptr %49, i32 0, i32 3
  %51 = load i32, ptr %50, align 8
  %52 = add i32 %51, 1
  store i32 %52, ptr %50, align 8
  br label %53

53:                                               ; preds = %48, %33
  call void @llvm.lifetime.end.p0(i64 4, ptr %9) #7
  call void @llvm.lifetime.end.p0(i64 8, ptr %8) #7
  call void @llvm.lifetime.end.p0(i64 8, ptr %7) #7
  ret void
}