; Function Attrs: nounwind uwtable
define internal void @add_to_tsvector(ptr noundef readonly captures(none) %0, ptr noundef %1, i32 noundef %2) #0 {
  %4 = load ptr, ptr %0, align 8
  %5 = load ptr, ptr %4, align 8
  %6 = icmp eq ptr %5, null
  br i1 %6, label %7, label %._crit_edge

._crit_edge:                                      ; preds = %3
  %.phi.trans.insert = getelementptr inbounds nuw i8, ptr %4, i64 12
  %.pre = load i32, ptr %.phi.trans.insert, align 4
  br label %12

7:                                                ; preds = %3
  %8 = getelementptr inbounds nuw i8, ptr %4, i64 8
  store i32 16, ptr %8, align 8
  %9 = tail call ptr @palloc(i64 noundef 384) #8
  store ptr %9, ptr %4, align 8
  %10 = getelementptr inbounds nuw i8, ptr %4, i64 12
  store i32 0, ptr %10, align 4
  %11 = getelementptr inbounds nuw i8, ptr %4, i64 16
  store i32 0, ptr %11, align 8
  br label %12

12:                                               ; preds = %._crit_edge, %7
  %13 = phi i32 [ %.pre, %._crit_edge ], [ 0, %7 ]
  %14 = getelementptr inbounds nuw i8, ptr %4, i64 12
  %15 = getelementptr inbounds nuw i8, ptr %0, i64 8
  %16 = load i32, ptr %15, align 8
  tail call void @parsetext(i32 noundef %16, ptr noundef nonnull %4, ptr noundef %1, i32 noundef %2) #8
  %17 = load i32, ptr %14, align 4
  %18 = icmp sgt i32 %17, %13
  br i1 %18, label %19, label %23

19:                                               ; preds = %12
  %20 = getelementptr inbounds nuw i8, ptr %4, i64 16
  %21 = load i32, ptr %20, align 8
  %22 = add i32 %21, 1
  store i32 %22, ptr %20, align 8
  br label %23

23:                                               ; preds = %19, %12
  ret void
}